target datalayout = "e-m:e-p270:32:32-p271:32:32-p272:64:64-i64:64-i128:128-f80:128-n8:16:32:64-S128"
target triple = "x86_64-pc-linux-gnu"

%struct.Abc_Ntk_t_ = type { i32, i32, ptr, ptr, ptr, ptr, ptr, ptr, ptr, ptr, ptr, ptr, ptr, [11 x i32], i32, i32, i32, i32, ptr, i32, ptr, ptr, i32, i32, i32, double, i32, %struct.Vec_Int_t_, ptr, ptr, ptr, ptr, ptr, float, i32, ptr, ptr, ptr, ptr, ptr, ptr, ptr, ptr, ptr, ptr, ptr, ptr, ptr, ptr, ptr, ptr, ptr, ptr, ptr, ptr, ptr, ptr }
%struct.Vec_Int_t_ = type { i32, i32, ptr }
%struct.Vec_Ptr_t_ = type { i32, i32, ptr }

; Function Attrs: inlinehint nounwind uwtable
define internal void @Vec_PtrWriteEntry(ptr noundef %0, i32 noundef %1, ptr noundef %2) #3 {
  %4 = alloca ptr, align 8
  %5 = alloca i32, align 4
  %6 = alloca ptr, align 8
  store ptr %0, ptr %4, align 8, !tbaa !43
  store i32 %1, ptr %5, align 4, !tbaa !8
  store ptr %2, ptr %6, align 8, !tbaa !48
  %7 = load ptr, ptr %6, align 8, !tbaa !48
  %8 = load ptr, ptr %4, align 8, !tbaa !43
  %9 = getelementptr inbounds nuw %struct.Vec_Ptr_t_, ptr %8, i32 0, i32 2
  %10 = load ptr, ptr %9, align 8, !tbaa !47
  %11 = load i32, ptr %5, align 4, !tbaa !8
  %12 = sext i32 %11 to i64
  %13 = getelementptr inbounds ptr, ptr %10, i64 %12
  store ptr %7, ptr %13, align 8, !tbaa !48
  ret void
}

; Function Attrs: inlinehint nounwind uwtable
define internal ptr @Vec_PtrEntry(ptr noundef %0, i32 noundef %1) #3 {
  %3 = alloca ptr, align 8
  %4 = alloca i32, align 4
  store ptr %0, ptr %3, align 8, !tbaa !43
  store i32 %1, ptr %4, align 4, !tbaa !8
  %5 = load ptr, ptr %3, align 8, !tbaa !43
  %6 = getelementptr inbounds nuw %struct.Vec_Ptr_t_, ptr %5, i32 0, i32 2
  %7 = load ptr, ptr %6, align 8, !tbaa !47
  %8 = load i32, ptr %4, align 4, !tbaa !8
  %9 = sext i32 %8 to i64
  %10 = getelementptr inbounds ptr, ptr %7, i64 %9
  %11 = load ptr, ptr %10, align 8, !tbaa !48
  ret ptr %11
}

; Function Attrs: inlinehint nounwind uwtable
define internal i32 @Vec_PtrSize(ptr noundef %0) #3 {
  %2 = alloca ptr, align 8
  store ptr %0, ptr %2, align 8, !tbaa !43
  %3 = load ptr, ptr %2, align 8, !tbaa !43
  %4 = getelementptr inbounds nuw %struct.Vec_Ptr_t_, ptr %3, i32 0, i32 1
  %5 = load i32, ptr %4, align 4, !tbaa !45
  ret i32 %5
}

; Function Attrs: nounwind uwtable
define void @Abc_NodeBalancePermute(ptr noundef %0, ptr noundef %1, i32 noundef %2) #0 {
  %4 = alloca ptr, align 8
  %5 = alloca ptr, align 8
  %6 = alloca i32, align 4
  %7 = alloca ptr, align 8
  %8 = alloca ptr, align 8
  %9 = alloca ptr, align 8
  %10 = alloca i32, align 4
  %11 = alloca i32, align 4
  %12 = alloca i32, align 4
  store ptr %0, ptr %4, align 8, !tbaa !3
  store ptr %1, ptr %5, align 8, !tbaa !43
  store i32 %2, ptr %6, align 4, !tbaa !8
  call void @llvm.lifetime.start.p0(i64 8, ptr %7) #7
  call void @llvm.lifetime.start.p0(i64 8, ptr %8) #7
  call void @llvm.lifetime.start.p0(i64 8, ptr %9) #7
  call void @llvm.lifetime.start.p0(i64 4, ptr %10) #7
  call void @llvm.lifetime.start.p0(i64 4, ptr %11) #7
  %13 = load ptr, ptr %5, align 8, !tbaa !43
  %14 = call i32 @Vec_PtrSize(ptr noundef %13)
  %15 = sub nsw i32 %14, 2
  store i32 %15, ptr %10, align 4, !tbaa !8
  %16 = load i32, ptr %6, align 4, !tbaa !8
  %17 = load i32, ptr %10, align 4, !tbaa !8
  %18 = icmp eq i32 %16, %17
  br i1 %18, label %19, label %20

19:                                               ; preds = %3
  store i32 1, ptr %12, align 4
  br label %61

20:                                               ; preds = %3
  %21 = load ptr, ptr %5, align 8, !tbaa !43
  %22 = load i32, ptr %10, align 4, !tbaa !8
  %23 = add nsw i32 %22, 1
  %24 = call ptr @Vec_PtrEntry(ptr noundef %21, i32 noundef %23)
  store ptr %24, ptr %7, align 8, !tbaa !28
  %25 = load ptr, ptr %5, align 8, !tbaa !43
  %26 = load i32, ptr %10, align 4, !tbaa !8
  %27 = call ptr @Vec_PtrEntry(ptr noundef %25, i32 noundef %26)
  store ptr %27, ptr %8, align 8, !tbaa !28
  %28 = load i32, ptr %10, align 4, !tbaa !8
  store i32 %28, ptr %11, align 4, !tbaa !8
  br label %29

29:                                               ; preds = %57, %20
  %30 = load i32, ptr %11, align 4, !tbaa !8
  %31 = load i32, ptr %6, align 4, !tbaa !8
  %32 = icmp sge i32 %30, %31
  br i1 %32, label %33, label %60

33:                                               ; preds = %29
  %34 = load ptr, ptr %5, align 8, !tbaa !43
  %35 = load i32, ptr %11, align 4, !tbaa !8
  %36 = call ptr @Vec_PtrEntry(ptr noundef %34, i32 noundef %35)
  store ptr %36, ptr %9, align 8, !tbaa !28
  %37 = load ptr, ptr %4, align 8, !tbaa !3
  %38 = getelementptr inbounds nuw %struct.Abc_Ntk_t_, ptr %37, i32 0, i32 30
  %39 = load ptr, ptr %38, align 8, !tbaa !10
  %40 = load ptr, ptr %7, align 8, !tbaa !28
  %41 = load ptr, ptr %9, align 8, !tbaa !28
  %42 = call ptr @Abc_AigAndLookup(ptr noundef %39, ptr noundef %40, ptr noundef %41)
  %43 = icmp ne ptr %42, null
  br i1 %43, label %44, label %56

44:                                               ; preds = %33
  %45 = load ptr, ptr %9, align 8, !tbaa !28
  %46 = load ptr, ptr %8, align 8, !tbaa !28
  %47 = icmp eq ptr %45, %46
  br i1 %47, label %48, label %49

48:                                               ; preds = %44
  store i32 1, ptr %12, align 4
  br label %61

49:                                               ; preds = %44
  %50 = load ptr, ptr %5, align 8, !tbaa !43
  %51 = load i32, ptr %11, align 4, !tbaa !8
  %52 = load ptr, ptr %8, align 8, !tbaa !28
  call void @Vec_PtrWriteEntry(ptr noundef %50, i32 noundef %51, ptr noundef %52)
  %53 = load ptr, ptr %5, align 8, !tbaa !43
  %54 = load i32, ptr %10, align 4, !tbaa !8
  %55 = load ptr, ptr %9, align 8, !tbaa !28
  call void @Vec_PtrWriteEntry(ptr noundef %53, i32 noundef %54, ptr noundef %55)
  store i32 1, ptr %12, align 4
  br label %61

56:                                               ; preds = %33
  br label %57

57:                                               ; preds = %56
  %58 = load i32, ptr %11, align 4, !tbaa !8
  %59 = add nsw i32 %58, -1
  store i32 %59, ptr %11, align 4, !tbaa !8
  br label %29, !llvm.loop !49

60:                                               ; preds = %29
  store i32 0, ptr %12, align 4
  br label %61

61:                                               ; preds = %60, %49, %48, %19
  call void @llvm.lifetime.end.p0(i64 4, ptr %11) #7
  call void @llvm.lifetime.end.p0(i64 4, ptr %10) #7
  call void @llvm.lifetime.end.p0(i64 8, ptr %9) #7
  call void @llvm.lifetime.end.p0(i64 8, ptr %8) #7
  call void @llvm.lifetime.end.p0(i64 8, ptr %7) #7
  %62 = load i32, ptr %12, align 4
  switch i32 %62, label %64 [
    i32 0, label %63
    i32 1, label %63
  ]

63:                                               ; preds = %61, %61
  ret void

64:                                               ; preds = %61
  unreachable
}