; Function Attrs: nounwind uwtable
define void @Abc_NodeBalancePermute(ptr noundef readonly captures(none) %0, ptr noundef readonly captures(none) %1, i32 noundef %2) local_unnamed_addr #0 {
  %4 = getelementptr i8, ptr %1, i64 4
  %.val = load i32, ptr %4, align 4, !tbaa !24
  %5 = add nsw i32 %.val, -2
  %6 = icmp eq i32 %2, %5
  br i1 %6, label %.loopexit, label %7

7:                                                ; preds = %3
  %8 = getelementptr i8, ptr %1, i64 8
  %.val30 = load ptr, ptr %8, align 8, !tbaa !26
  %9 = sext i32 %.val to i64
  %10 = getelementptr ptr, ptr %.val30, i64 %9
  %11 = getelementptr i8, ptr %10, i64 -8
  %12 = load ptr, ptr %11, align 8, !tbaa !27
  %13 = sext i32 %5 to i64
  %14 = getelementptr inbounds ptr, ptr %.val30, i64 %13
  %15 = load ptr, ptr %14, align 8, !tbaa !27
  %.not34 = icmp slt i32 %5, %2
  br i1 %.not34, label %.loopexit, label %.lr.ph

.lr.ph:                                           ; preds = %7
  %16 = getelementptr inbounds nuw i8, ptr %0, i64 256
  %17 = add nsw i64 %9, -2
  %18 = sext i32 %2 to i64
  br label %20

19:                                               ; preds = %20
  %indvars.iv.next = add nsw i64 %indvars.iv, -1
  %.not.not = icmp sgt i64 %indvars.iv, %18
  br i1 %.not.not, label %20, label %.loopexit, !llvm.loop !54

20:                                               ; preds = %.lr.ph, %19
  %indvars.iv = phi i64 [ %17, %.lr.ph ], [ %indvars.iv.next, %19 ]
  %.val28 = load ptr, ptr %8, align 8, !tbaa !26
  %21 = getelementptr inbounds ptr, ptr %.val28, i64 %indvars.iv
  %22 = load ptr, ptr %21, align 8, !tbaa !27
  %23 = load ptr, ptr %16, align 8, !tbaa !31
  %24 = tail call ptr @Abc_AigAndLookup(ptr noundef %23, ptr noundef %12, ptr noundef %22) #13
  %.not27 = icmp eq ptr %24, null
  br i1 %.not27, label %19, label %25

25:                                               ; preds = %20
  %26 = icmp eq ptr %22, %15
  br i1 %26, label %.loopexit, label %27

27:                                               ; preds = %25
  %.val31 = load ptr, ptr %8, align 8, !tbaa !26
  %28 = getelementptr inbounds ptr, ptr %.val31, i64 %indvars.iv
  store ptr %15, ptr %28, align 8, !tbaa !27
  %.val32 = load ptr, ptr %8, align 8, !tbaa !26
  %29 = getelementptr inbounds ptr, ptr %.val32, i64 %13
  store ptr %22, ptr %29, align 8, !tbaa !27
  br label %.loopexit

.loopexit:                                        ; preds = %19, %7, %25, %3, %27
  ret void
}